(dp0
I1
(lp1
I2
aI4
aI6
aI8
aI10
aI12
aI14
aI16
aI18
aI20
aI22
aI24
aI26
aI28
aI30
aI32
aI34
aI36
aI38
aI40
aI42
aI44
aI46
aI48
aI50
aI52
aI54
aI56
aI58
aI60
aI62
aI64
aI66
aI68
aI70
aI72
aI74
aI76
aI78
aI80
aI82
aI84
aI86
aI88
aI90
aI92
aI94
aI96
aI98
aI100
aI102
aI104
aI106
aI108
aI110
aI112
aI114
aI116
aI118
aI120
aI122
aI124
aI126
aI128
aI130
aI132
aI134
aI136
aI138
aI140
aI142
aI144
aI146
aI148
aI150
aI152
aI154
aI156
aI158
aI160
aI162
aI164
aI166
aI168
aI170
aI172
aI174
aI176
aI178
aI180
aI182
aI184
aI186
aI188
aI190
aI192
aI194
aI196
aI198
aI200
aI202
aI204
aI206
aI208
aI210
aI212
aI214
aI216
aI218
aI220
aI222
aI224
aI226
aI228
aI230
aI232
aI234
aI236
aI238
aI240
aI242
aI244
aI246
aI248
aI250
aI252
aI254
aI256
aI258
aI260
aI262
aI264
aI266
aI268
aI270
aI272
aI274
aI276
aI278
aI280
aI282
aI284
aI286
aI288
aI290
aI292
aI294
aI296
aI298
aI300
aI302
aI304
aI306
aI308
aI310
aI312
aI314
aI316
aI318
aI320
aI322
aI324
aI326
aI328
aI330
aI332
aI334
aI336
aI338
aI340
aI342
aI344
aI346
aI348
aI350
aI352
aI354
aI356
aI358
aI360
aI362
aI364
aI366
aI368
aI370
aI372
aI374
aI376
aI378
aI380
aI382
aI384
aI386
aI388
aI390
aI392
aI394
aI396
aI398
aI400
aI402
aI404
aI406
aI408
aI410
aI412
aI414
aI416
aI418
aI420
aI422
aI424
aI426
aI428
aI430
aI432
aI434
aI436
aI438
aI440
aI442
aI444
aI446
aI448
aI450
aI452
aI454
aI456
aI458
aI460
aI462
aI464
aI466
aI468
aI470
aI472
aI474
aI476
aI478
aI480
aI482
aI484
aI486
aI488
aI490
aI492
aI494
aI496
aI498
aI500
aI502
aI504
aI506
aI508
aI510
aI512
aI514
aI516
aI518
aI520
aI522
aI524
aI526
aI528
aI530
aI532
aI534
aI536
aI538
aI540
aI542
aI544
aI546
aI548
aI550
aI552
aI554
aI556
aI558
aI560
aI562
aI564
aI566
aI568
aI570
aI572
aI574
aI576
aI578
aI580
aI582
aI584
aI586
aI588
aI590
aI592
aI594
aI596
aI598
aI600
aI602
aI604
aI606
aI608
aI610
aI612
aI614
aI616
aI618
aI620
aI622
aI624
aI626
aI628
aI630
aI632
aI634
aI636
aI638
aI640
aI642
aI644
aI646
aI648
aI650
aI652
aI654
aI656
aI658
aI660
aI662
aI664
aI666
aI668
aI670
aI672
aI674
aI676
aI678
aI680
aI682
aI683
aI685
aI687
aI689
aI691
aI693
aI695
aI697
aI699
aI701
aI703
aI705
aI707
aI709
aI711
aI713
aI715
aI717
aI719
aI721
aI723
aI725
aI727
aI729
aI731
aI733
aI735
aI737
aI739
aI741
aI743
aI745
aI747
aI749
aI751
aI753
aI755
aI757
aI759
aI761
aI763
aI765
aI767
aI769
aI771
aI773
aI775
aI777
aI779
aI781
aI783
aI785
aI787
aI789
aI791
aI793
aI795
aI797
aI799
aI801
aI803
aI805
aI807
aI809
aI811
aI813
aI815
aI817
aI819
aI821
aI823
aI825
aI827
aI829
aI831
aI833
aI835
aI837
aI839
aI841
aI843
aI845
aI847
aI849
aI851
aI853
aI855
aI857
aI859
aI861
aI863
aI865
aI867
aI869
aI871
aI873
aI875
aI877
aI879
aI881
aI883
aI885
aI887
aI889
aI891
aI893
aI895
aI897
aI899
aI901
aI903
aI905
aI907
aI909
aI911
aI913
aI915
aI917
aI919
aI921
aI923
aI925
aI927
aI929
aI931
aI933
aI935
aI937
aI939
aI941
aI943
aI945
aI947
aI949
aI951
aI953
aI955
aI957
aI959
aI961
aI963
aI965
aI967
aI969
aI971
aI973
aI975
aI977
aI979
aI981
aI983
aI985
aI987
aI989
aI991
aI993
aI995
aI997
aI999
aI1001
aI1003
aI1005
aI1007
aI1009
aI1011
aI1013
aI1015
aI1017
aI1019
aI1021
aI1023
aI1025
aI1027
aI1029
aI1031
aI1033
aI1035
aI1037
aI1039
aI1041
aI1043
aI1045
aI1047
aI1049
aI1051
aI1053
aI1055
aI1057
aI1059
aI1061
aI1063
aI1065
aI1067
aI1069
aI1071
aI1073
aI1075
aI1077
aI1079
aI1081
aI1083
aI1085
aI1087
aI1089
aI1091
aI1093
aI1095
aI1097
aI1099
aI1101
aI1103
aI1105
aI1107
aI1109
aI1111
aI1113
aI1115
aI1117
aI1119
aI1121
aI1123
aI1125
aI1127
aI1129
aI1131
aI1133
aI1135
aI1137
aI1139
aI1141
aI1143
aI1145
aI1147
aI1149
aI1151
aI1153
aI1155
aI1157
aI1159
aI1161
aI1163
aI1165
aI1167
aI1169
aI1171
aI1173
aI1175
aI1177
aI1179
aI1181
aI1183
aI1185
aI1187
aI1189
aI1191
aI1193
aI1195
aI1197
aI1199
aI1201
aI1203
aI1205
aI1207
aI1209
aI1211
aI1213
aI1215
aI1217
aI1219
aI1221
aI1223
aI1225
aI1227
aI1229
aI1231
aI1233
aI1235
aI1237
aI1239
aI1241
aI1243
aI1245
aI1247
aI1249
aI1251
aI1253
aI1255
aI1257
aI1259
aI1261
aI1263
aI1265
aI1267
aI1269
aI1271
aI1273
aI1275
aI1277
aI1279
aI1281
aI1283
aI1285
aI1287
aI1289
aI1291
aI1293
aI1295
aI1297
aI1299
aI1301
aI1303
aI1305
aI1307
aI1309
aI1311
aI1313
aI1315
aI1317
aI1319
aI1321
aI1323
aI1325
aI1327
aI1329
aI1331
aI1333
aI1335
aI1337
aI1339
aI1341
aI1343
aI1345
aI1347
aI1349
aI1351
aI1353
aI1355
aI1357
aI1359
aI1361
aI1363
aI1365
aI1366
aI1368
aI1370
aI1372
aI1374
aI1376
aI1378
aI1380
aI1382
aI1384
aI1386
aI1388
aI1390
aI1392
aI1394
aI1396
aI1398
aI1400
aI1402
aI1404
aI1406
aI1408
aI1410
aI1412
aI1414
aI1416
aI1418
aI1420
aI1422
aI1424
aI1426
aI1428
aI1430
aI1432
aI1434
aI1436
aI1438
aI1440
aI1442
aI1444
aI1446
aI1448
aI1450
aI1452
aI1454
aI1456
aI1458
aI1460
aI1462
aI1464
aI1466
aI1468
aI1470
aI1472
aI1474
aI1476
aI1478
aI1480
aI1482
aI1484
aI1486
aI1488
aI1490
aI1492
aI1494
aI1496
aI1498
aI1500
aI1502
aI1504
aI1506
aI1508
aI1510
aI1512
aI1514
aI1516
aI1518
aI1520
aI1522
aI1524
aI1526
aI1528
aI1530
aI1532
aI1534
aI1536
aI1538
aI1540
aI1542
aI1544
aI1546
aI1548
aI1550
aI1552
aI1554
aI1556
aI1558
aI1560
aI1562
aI1564
aI1566
aI1568
aI1570
aI1572
aI1574
aI1576
aI1578
aI1580
aI1582
aI1584
aI1586
aI1588
aI1590
aI1592
aI1594
aI1596
aI1598
aI1600
aI1602
aI1604
aI1606
aI1608
aI1610
aI1612
aI1614
aI1616
aI1618
aI1620
aI1622
aI1624
aI1626
aI1628
aI1630
aI1632
aI1634
aI1636
aI1638
aI1640
aI1642
aI1644
aI1646
aI1648
aI1650
aI1652
aI1654
aI1656
aI1658
aI1660
aI1662
aI1664
aI1666
aI1668
aI1670
aI1672
aI1674
aI1676
aI1678
aI1680
aI1682
aI1684
aI1686
aI1688
aI1690
aI1692
aI1694
aI1696
aI1698
aI1700
aI1702
aI1704
aI1706
aI1708
aI1710
aI1712
aI1714
aI1716
aI1718
aI1720
aI1722
aI1724
aI1726
aI1728
aI1730
aI1732
aI1734
aI1736
aI1738
aI1740
aI1742
aI1744
aI1746
aI1748
aI1750
aI1752
aI1754
aI1756
aI1758
aI1760
aI1762
aI1764
aI1766
aI1768
aI1770
aI1772
aI1774
aI1776
aI1778
aI1780
aI1782
aI1784
aI1786
aI1788
aI1790
aI1792
aI1794
aI1796
aI1798
aI1800
aI1802
aI1804
aI1806
aI1808
aI1810
aI1812
aI1814
aI1816
aI1818
aI1820
aI1822
aI1824
aI1826
aI1828
aI1830
aI1832
aI1834
aI1836
aI1838
aI1840
aI1842
aI1844
aI1846
aI1848
aI1850
aI1852
aI1854
aI1856
aI1858
aI1860
aI1862
aI1864
aI1866
aI1868
aI1870
aI1872
aI1874
aI1876
aI1878
aI1880
aI1882
aI1884
aI1886
aI1888
aI1890
aI1892
aI1894
aI1896
aI1898
aI1900
aI1902
aI1904
aI1906
aI1908
aI1910
aI1912
aI1914
aI1916
aI1918
aI1920
aI1922
aI1924
aI1926
aI1928
aI1930
aI1932
aI1934
aI1936
aI1938
aI1940
aI1942
aI1944
aI1946
aI1948
aI1950
aI1952
aI1954
aI1956
aI1958
aI1960
aI1962
aI1964
aI1966
aI1968
aI1970
aI1972
aI1974
aI1976
aI1978
aI1980
aI1982
aI1984
aI1986
aI1988
aI1990
aI1992
aI1994
aI1996
aI1998
aI2000
aI2002
aI2004
aI2006
aI2008
aI2010
aI2012
aI2014
aI2016
aI2018
aI2020
aI2022
aI2024
aI2026
aI2028
aI2030
aI2032
aI2034
aI2036
aI2038
aI2040
aI2042
aI2044
aI2046
asI2
(lp2
I2
aI4
aI6
aI8
aI10
aI12
aI14
aI16
aI18
aI20
aI22
aI24
aI26
aI28
aI30
aI32
aI34
aI36
aI38
aI40
aI42
aI44
aI46
aI48
aI50
aI52
aI54
aI56
aI58
aI60
aI62
aI64
aI66
aI68
aI70
aI72
aI74
aI76
aI78
aI80
aI82
aI84
aI86
aI88
aI90
aI92
aI94
aI96
aI98
aI100
aI102
aI104
aI106
aI108
aI110
aI112
aI114
aI116
aI118
aI120
aI122
aI124
aI126
aI128
aI130
aI132
aI134
aI136
aI138
aI140
aI142
aI144
aI146
aI148
aI150
aI152
aI154
aI156
aI158
aI160
aI162
aI164
aI166
aI168
aI170
aI172
aI174
aI176
aI178
aI180
aI182
aI184
aI186
aI188
aI190
aI192
aI194
aI196
aI198
aI200
aI202
aI204
aI206
aI208
aI210
aI212
aI214
aI216
aI218
aI220
aI222
aI224
aI226
aI228
aI230
aI232
aI234
aI236
aI238
aI240
aI242
aI244
aI246
aI248
aI250
aI252
aI254
aI256
aI258
aI260
aI262
aI264
aI266
aI268
aI270
aI272
aI274
aI276
aI278
aI280
aI282
aI284
aI286
aI288
aI290
aI292
aI294
aI296
aI298
aI300
aI302
aI304
aI306
aI308
aI310
aI312
aI314
aI316
aI318
aI320
aI322
aI324
aI326
aI328
aI330
aI332
aI334
aI336
aI338
aI340
aI342
aI344
aI346
aI348
aI350
aI352
aI354
aI356
aI358
aI360
aI362
aI364
aI366
aI368
aI370
aI372
aI374
aI376
aI378
aI380
aI382
aI384
aI386
aI388
aI390
aI392
aI394
aI396
aI398
aI400
aI402
aI404
aI406
aI408
aI410
aI412
aI414
aI416
aI418
aI420
aI422
aI424
aI426
aI428
aI430
aI432
aI434
aI436
aI438
aI440
aI442
aI444
aI446
aI448
aI450
aI452
aI454
aI456
aI458
aI460
aI462
aI464
aI466
aI468
aI470
aI472
aI474
aI476
aI478
aI480
aI482
aI484
aI486
aI488
aI490
aI492
aI494
aI496
aI498
aI500
aI502
aI504
aI506
aI508
aI510
aI512
aI514
aI516
aI518
aI520
aI522
aI524
aI526
aI528
aI530
aI532
aI534
aI536
aI538
aI540
aI542
aI544
aI546
aI548
aI550
aI552
aI554
aI556
aI558
aI560
aI562
aI564
aI566
aI568
aI570
aI572
aI574
aI576
aI578
aI580
aI582
aI584
aI586
aI588
aI590
aI592
aI594
aI596
aI598
aI600
aI602
aI604
aI606
aI608
aI610
aI612
aI614
aI616
aI618
aI620
aI622
aI624
aI626
aI628
aI630
aI632
aI634
aI636
aI638
aI640
aI642
aI644
aI646
aI648
aI650
aI652
aI654
aI656
aI658
aI660
aI662
aI664
aI666
aI668
aI670
aI672
aI674
aI676
aI678
aI680
aI682
aI683
aI685
aI687
aI689
aI691
aI693
aI695
aI697
aI699
aI701
aI703
aI705
aI707
aI709
aI711
aI713
aI715
aI717
aI719
aI721
aI723
aI725
aI727
aI729
aI731
aI733
aI735
aI737
aI739
aI741
aI743
aI745
aI747
aI749
aI751
aI753
aI755
aI757
aI759
aI761
aI763
aI765
aI767
aI769
aI771
aI773
aI775
aI777
aI779
aI781
aI783
aI785
aI787
aI789
aI791
aI793
aI795
aI797
aI799
aI801
aI803
aI805
aI807
aI809
aI811
aI813
aI815
aI817
aI819
aI821
aI823
aI825
aI827
aI829
aI831
aI833
aI835
aI837
aI839
aI841
aI843
aI845
aI847
aI849
aI851
aI853
aI855
aI857
aI859
aI861
aI863
aI865
aI867
aI869
aI871
aI873
aI875
aI877
aI879
aI881
aI883
aI885
aI887
aI889
aI891
aI893
aI895
aI897
aI899
aI901
aI903
aI905
aI907
aI909
aI911
aI913
aI915
aI917
aI919
aI921
aI923
aI925
aI927
aI929
aI931
aI933
aI935
aI937
aI939
aI941
aI943
aI945
aI947
aI949
aI951
aI953
aI955
aI957
aI959
aI961
aI963
aI965
aI967
aI969
aI971
aI973
aI975
aI977
aI979
aI981
aI983
aI985
aI987
aI989
aI991
aI993
aI995
aI997
aI999
aI1001
aI1003
aI1005
aI1007
aI1009
aI1011
aI1013
aI1015
aI1017
aI1019
aI1021
aI1023
aI1025
aI1027
aI1029
aI1031
aI1033
aI1035
aI1037
aI1039
aI1041
aI1043
aI1045
aI1047
aI1049
aI1051
aI1053
aI1055
aI1057
aI1059
aI1061
aI1063
aI1065
aI1067
aI1069
aI1071
aI1073
aI1075
aI1077
aI1079
aI1081
aI1083
aI1085
aI1087
aI1089
aI1091
aI1093
aI1095
aI1097
aI1099
aI1101
aI1103
aI1105
aI1107
aI1109
aI1111
aI1113
aI1115
aI1117
aI1119
aI1121
aI1123
aI1125
aI1127
aI1129
aI1131
aI1133
aI1135
aI1137
aI1139
aI1141
aI1143
aI1145
aI1147
aI1149
aI1151
aI1153
aI1155
aI1157
aI1159
aI1161
aI1163
aI1165
aI1167
aI1169
aI1171
aI1173
aI1175
aI1177
aI1179
aI1181
aI1183
aI1185
aI1187
aI1189
aI1191
aI1193
aI1195
aI1197
aI1199
aI1201
aI1203
aI1205
aI1207
aI1209
aI1211
aI1213
aI1215
aI1217
aI1219
aI1221
aI1223
aI1225
aI1227
aI1229
aI1231
aI1233
aI1235
aI1237
aI1239
aI1241
aI1243
aI1245
aI1247
aI1249
aI1251
aI1253
aI1255
aI1257
aI1259
aI1261
aI1263
aI1265
aI1267
aI1269
aI1271
aI1273
aI1275
aI1277
aI1279
aI1281
aI1283
aI1285
aI1287
aI1289
aI1291
aI1293
aI1295
aI1297
aI1299
aI1301
aI1303
aI1305
aI1307
aI1309
aI1311
aI1313
aI1315
aI1317
aI1319
aI1321
aI1323
aI1325
aI1327
aI1329
aI1331
aI1333
aI1335
aI1337
aI1339
aI1341
aI1343
aI1345
aI1347
aI1349
aI1351
aI1353
aI1355
aI1357
aI1359
aI1361
aI1363
aI1365
aI1366
aI1368
aI1370
aI1372
aI1374
aI1376
aI1378
aI1380
aI1382
aI1384
aI1386
aI1388
aI1390
aI1392
aI1394
aI1396
aI1398
aI1400
aI1402
aI1404
aI1406
aI1408
aI1410
aI1412
aI1414
aI1416
aI1418
aI1420
aI1422
aI1424
aI1426
aI1428
aI1430
aI1432
aI1434
aI1436
aI1438
aI1440
aI1442
aI1444
aI1446
aI1448
aI1450
aI1452
aI1454
aI1456
aI1458
aI1460
aI1462
aI1464
aI1466
aI1468
aI1470
aI1472
aI1474
aI1476
aI1478
aI1480
aI1482
aI1484
aI1486
aI1488
aI1490
aI1492
aI1494
aI1496
aI1498
aI1500
aI1502
aI1504
aI1506
aI1508
aI1510
aI1512
aI1514
aI1516
aI1518
aI1520
aI1522
aI1524
aI1526
aI1528
aI1530
aI1532
aI1534
aI1536
aI1538
aI1540
aI1542
aI1544
aI1546
aI1548
aI1550
aI1552
aI1554
aI1556
aI1558
aI1560
aI1562
aI1564
aI1566
aI1568
aI1570
aI1572
aI1574
aI1576
aI1578
aI1580
aI1582
aI1584
aI1586
aI1588
aI1590
aI1592
aI1594
aI1596
aI1598
aI1600
aI1602
aI1604
aI1606
aI1608
aI1610
aI1612
aI1614
aI1616
aI1618
aI1620
aI1622
aI1624
aI1626
aI1628
aI1630
aI1632
aI1634
aI1636
aI1638
aI1640
aI1642
aI1644
aI1646
aI1648
aI1650
aI1652
aI1654
aI1656
aI1658
aI1660
aI1662
aI1664
aI1666
aI1668
aI1670
aI1672
aI1674
aI1676
aI1678
aI1680
aI1682
aI1684
aI1686
aI1688
aI1690
aI1692
aI1694
aI1696
aI1698
aI1700
aI1702
aI1704
aI1706
aI1708
aI1710
aI1712
aI1714
aI1716
aI1718
aI1720
aI1722
aI1724
aI1726
aI1728
aI1730
aI1732
aI1734
aI1736
aI1738
aI1740
aI1742
aI1744
aI1746
aI1748
aI1750
aI1752
aI1754
aI1756
aI1758
aI1760
aI1762
aI1764
aI1766
aI1768
aI1770
aI1772
aI1774
aI1776
aI1778
aI1780
aI1782
aI1784
aI1786
aI1788
aI1790
aI1792
aI1794
aI1796
aI1798
aI1800
aI1802
aI1804
aI1806
aI1808
aI1810
aI1812
aI1814
aI1816
aI1818
aI1820
aI1822
aI1824
aI1826
aI1828
aI1830
aI1832
aI1834
aI1836
aI1838
aI1840
aI1842
aI1844
aI1846
aI1848
aI1850
aI1852
aI1854
aI1856
aI1858
aI1860
aI1862
aI1864
aI1866
aI1868
aI1870
aI1872
aI1874
aI1876
aI1878
aI1880
aI1882
aI1884
aI1886
aI1888
aI1890
aI1892
aI1894
aI1896
aI1898
aI1900
aI1902
aI1904
aI1906
aI1908
aI1910
aI1912
aI1914
aI1916
aI1918
aI1920
aI1922
aI1924
aI1926
aI1928
aI1930
aI1932
aI1934
aI1936
aI1938
aI1940
aI1942
aI1944
aI1946
aI1948
aI1950
aI1952
aI1954
aI1956
aI1958
aI1960
aI1962
aI1964
aI1966
aI1968
aI1970
aI1972
aI1974
aI1976
aI1978
aI1980
aI1982
aI1984
aI1986
aI1988
aI1990
aI1992
aI1994
aI1996
aI1998
aI2000
aI2002
aI2004
aI2006
aI2008
aI2010
aI2012
aI2014
aI2016
aI2018
aI2020
aI2022
aI2024
aI2026
aI2028
aI2030
aI2032
aI2034
aI2036
aI2038
aI2040
aI2042
aI2044
aI2046
asI3
(lp3
I2
aI4
aI6
aI8
aI10
aI12
aI14
aI16
aI18
aI20
aI22
aI24
aI26
aI28
aI30
aI32
aI34
aI36
aI38
aI40
aI42
aI44
aI46
aI48
aI50
aI52
aI54
aI56
aI58
aI60
aI62
aI64
aI66
aI68
aI70
aI72
aI74
aI76
aI78
aI80
aI82
aI84
aI86
aI88
aI90
aI92
aI94
aI96
aI98
aI100
aI102
aI104
aI106
aI108
aI110
aI112
aI114
aI116
aI118
aI120
aI122
aI124
aI126
aI128
aI130
aI132
aI134
aI136
aI138
aI140
aI142
aI144
aI146
aI148
aI150
aI152
aI154
aI156
aI158
aI160
aI162
aI164
aI166
aI168
aI170
aI172
aI174
aI176
aI178
aI180
aI182
aI184
aI186
aI188
aI190
aI192
aI194
aI196
aI198
aI200
aI202
aI204
aI206
aI208
aI210
aI212
aI214
aI216
aI218
aI220
aI222
aI224
aI226
aI228
aI230
aI232
aI234
aI236
aI238
aI240
aI242
aI244
aI246
aI248
aI250
aI252
aI254
aI256
aI258
aI260
aI262
aI264
aI266
aI268
aI270
aI272
aI274
aI276
aI278
aI280
aI282
aI284
aI286
aI288
aI290
aI292
aI294
aI296
aI298
aI300
aI302
aI304
aI306
aI308
aI310
aI312
aI314
aI316
aI318
aI320
aI322
aI324
aI326
aI328
aI330
aI332
aI334
aI336
aI338
aI340
aI342
aI344
aI346
aI348
aI350
aI352
aI354
aI356
aI358
aI360
aI362
aI364
aI366
aI368
aI370
aI372
aI374
aI376
aI378
aI380
aI382
aI384
aI386
aI388
aI390
aI392
aI394
aI396
aI398
aI400
aI402
aI404
aI406
aI408
aI410
aI412
aI414
aI416
aI418
aI420
aI422
aI424
aI426
aI428
aI430
aI432
aI434
aI436
aI438
aI440
aI442
aI444
aI446
aI448
aI450
aI452
aI454
aI456
aI458
aI460
aI462
aI464
aI466
aI468
aI470
aI472
aI474
aI476
aI478
aI480
aI482
aI484
aI486
aI488
aI490
aI492
aI494
aI496
aI498
aI500
aI502
aI504
aI506
aI508
aI510
aI512
aI514
aI516
aI518
aI520
aI522
aI524
aI526
aI528
aI530
aI532
aI534
aI536
aI538
aI540
aI542
aI544
aI546
aI548
aI550
aI552
aI554
aI556
aI558
aI560
aI562
aI564
aI566
aI568
aI570
aI572
aI574
aI576
aI578
aI580
aI582
aI584
aI586
aI588
aI590
aI592
aI594
aI596
aI598
aI600
aI602
aI604
aI606
aI608
aI610
aI612
aI614
aI616
aI618
aI620
aI622
aI624
aI626
aI628
aI630
aI632
aI634
aI636
aI638
aI640
aI642
aI644
aI646
aI648
aI650
aI652
aI654
aI656
aI658
aI660
aI662
aI664
aI666
aI668
aI670
aI672
aI674
aI676
aI678
aI680
aI682
aI683
aI685
aI687
aI689
aI691
aI693
aI695
aI697
aI699
aI701
aI703
aI705
aI707
aI709
aI711
aI713
aI715
aI717
aI719
aI721
aI723
aI725
aI727
aI729
aI731
aI733
aI735
aI737
aI739
aI741
aI743
aI745
aI747
aI749
aI751
aI753
aI755
aI757
aI759
aI761
aI763
aI765
aI767
aI769
aI771
aI773
aI775
aI777
aI779
aI781
aI783
aI785
aI787
aI789
aI791
aI793
aI795
aI797
aI799
aI801
aI803
aI805
aI807
aI809
aI811
aI813
aI815
aI817
aI819
aI821
aI823
aI825
aI827
aI829
aI831
aI833
aI835
aI837
aI839
aI841
aI843
aI845
aI847
aI849
aI851
aI853
aI855
aI857
aI859
aI861
aI863
aI865
aI867
aI869
aI871
aI873
aI875
aI877
aI879
aI881
aI883
aI885
aI887
aI889
aI891
aI893
aI895
aI897
aI899
aI901
aI903
aI905
aI907
aI909
aI911
aI913
aI915
aI917
aI919
aI921
aI923
aI925
aI927
aI929
aI931
aI933
aI935
aI937
aI939
aI941
aI943
aI945
aI947
aI949
aI951
aI953
aI955
aI957
aI959
aI961
aI963
aI965
aI967
aI969
aI971
aI973
aI975
aI977
aI979
aI981
aI983
aI985
aI987
aI989
aI991
aI993
aI995
aI997
aI999
aI1001
aI1003
aI1005
aI1007
aI1009
aI1011
aI1013
aI1015
aI1017
aI1019
aI1021
aI1023
aI1025
aI1027
aI1029
aI1031
aI1033
aI1035
aI1037
aI1039
aI1041
aI1043
aI1045
aI1047
aI1049
aI1051
aI1053
aI1055
aI1057
aI1059
aI1061
aI1063
aI1065
aI1067
aI1069
aI1071
aI1073
aI1075
aI1077
aI1079
aI1081
aI1083
aI1085
aI1087
aI1089
aI1091
aI1093
aI1095
aI1097
aI1099
aI1101
aI1103
aI1105
aI1107
aI1109
aI1111
aI1113
aI1115
aI1117
aI1119
aI1121
aI1123
aI1125
aI1127
aI1129
aI1131
aI1133
aI1135
aI1137
aI1139
aI1141
aI1143
aI1145
aI1147
aI1149
aI1151
aI1153
aI1155
aI1157
aI1159
aI1161
aI1163
aI1165
aI1167
aI1169
aI1171
aI1173
aI1175
aI1177
aI1179
aI1181
aI1183
aI1185
aI1187
aI1189
aI1191
aI1193
aI1195
aI1197
aI1199
aI1201
aI1203
aI1205
aI1207
aI1209
aI1211
aI1213
aI1215
aI1217
aI1219
aI1221
aI1223
aI1225
aI1227
aI1229
aI1231
aI1233
aI1235
aI1237
aI1239
aI1241
aI1243
aI1245
aI1247
aI1249
aI1251
aI1253
aI1255
aI1257
aI1259
aI1261
aI1263
aI1265
aI1267
aI1269
aI1271
aI1273
aI1275
aI1277
aI1279
aI1281
aI1283
aI1285
aI1287
aI1289
aI1291
aI1293
aI1295
aI1297
aI1299
aI1301
aI1303
aI1305
aI1307
aI1309
aI1311
aI1313
aI1315
aI1317
aI1319
aI1321
aI1323
aI1325
aI1327
aI1329
aI1331
aI1333
aI1335
aI1337
aI1339
aI1341
aI1343
aI1345
aI1347
aI1349
aI1351
aI1353
aI1355
aI1357
aI1359
aI1361
aI1363
aI1365
aI1366
aI1368
aI1370
aI1372
aI1374
aI1376
aI1378
aI1380
aI1382
aI1384
aI1386
aI1388
aI1390
aI1392
aI1394
aI1396
aI1398
aI1400
aI1402
aI1404
aI1406
aI1408
aI1410
aI1412
aI1414
aI1416
aI1418
aI1420
aI1422
aI1424
aI1426
aI1428
aI1430
aI1432
aI1434
aI1436
aI1438
aI1440
aI1442
aI1444
aI1446
aI1448
aI1450
aI1452
aI1454
aI1456
aI1458
aI1460
aI1462
aI1464
aI1466
aI1468
aI1470
aI1472
aI1474
aI1476
aI1478
aI1480
aI1482
aI1484
aI1486
aI1488
aI1490
aI1492
aI1494
aI1496
aI1498
aI1500
aI1502
aI1504
aI1506
aI1508
aI1510
aI1512
aI1514
aI1516
aI1518
aI1520
aI1522
aI1524
aI1526
aI1528
aI1530
aI1532
aI1534
aI1536
aI1538
aI1540
aI1542
aI1544
aI1546
aI1548
aI1550
aI1552
aI1554
aI1556
aI1558
aI1560
aI1562
aI1564
aI1566
aI1568
aI1570
aI1572
aI1574
aI1576
aI1578
aI1580
aI1582
aI1584
aI1586
aI1588
aI1590
aI1592
aI1594
aI1596
aI1598
aI1600
aI1602
aI1604
aI1606
aI1608
aI1610
aI1612
aI1614
aI1616
aI1618
aI1620
aI1622
aI1624
aI1626
aI1628
aI1630
aI1632
aI1634
aI1636
aI1638
aI1640
aI1642
aI1644
aI1646
aI1648
aI1650
aI1652
aI1654
aI1656
aI1658
aI1660
aI1662
aI1664
aI1666
aI1668
aI1670
aI1672
aI1674
aI1676
aI1678
aI1680
aI1682
aI1684
aI1686
aI1688
aI1690
aI1692
aI1694
aI1696
aI1698
aI1700
aI1702
aI1704
aI1706
aI1708
aI1710
aI1712
aI1714
aI1716
aI1718
aI1720
aI1722
aI1724
aI1726
aI1728
aI1730
aI1732
aI1734
aI1736
aI1738
aI1740
aI1742
aI1744
aI1746
aI1748
aI1750
aI1752
aI1754
aI1756
aI1758
aI1760
aI1762
aI1764
aI1766
aI1768
aI1770
aI1772
aI1774
aI1776
aI1778
aI1780
aI1782
aI1784
aI1786
aI1788
aI1790
aI1792
aI1794
aI1796
aI1798
aI1800
aI1802
aI1804
aI1806
aI1808
aI1810
aI1812
aI1814
aI1816
aI1818
aI1820
aI1822
aI1824
aI1826
aI1828
aI1830
aI1832
aI1834
aI1836
aI1838
aI1840
aI1842
aI1844
aI1846
aI1848
aI1850
aI1852
aI1854
aI1856
aI1858
aI1860
aI1862
aI1864
aI1866
aI1868
aI1870
aI1872
aI1874
aI1876
aI1878
aI1880
aI1882
aI1884
aI1886
aI1888
aI1890
aI1892
aI1894
aI1896
aI1898
aI1900
aI1902
aI1904
aI1906
aI1908
aI1910
aI1912
aI1914
aI1916
aI1918
aI1920
aI1922
aI1924
aI1926
aI1928
aI1930
aI1932
aI1934
aI1936
aI1938
aI1940
aI1942
aI1944
aI1946
aI1948
aI1950
aI1952
aI1954
aI1956
aI1958
aI1960
aI1962
aI1964
aI1966
aI1968
aI1970
aI1972
aI1974
aI1976
aI1978
aI1980
aI1982
aI1984
aI1986
aI1988
aI1990
aI1992
aI1994
aI1996
aI1998
aI2000
aI2002
aI2004
aI2006
aI2008
aI2010
aI2012
aI2014
aI2016
aI2018
aI2020
aI2022
aI2024
aI2026
aI2028
aI2030
aI2032
aI2034
aI2036
aI2038
aI2040
aI2042
aI2044
aI2046
asI4
(lp4
I2
aI4
aI6
aI8
aI10
aI12
aI14
aI16
aI18
aI20
aI22
aI24
aI26
aI28
aI30
aI32
aI34
aI36
aI38
aI40
aI42
aI44
aI46
aI48
aI50
aI52
aI54
aI56
aI58
aI60
aI62
aI64
aI66
aI68
aI70
aI72
aI74
aI76
aI78
aI80
aI82
aI84
aI86
aI88
aI90
aI92
aI94
aI96
aI98
aI100
aI102
aI104
aI106
aI108
aI110
aI112
aI114
aI116
aI118
aI120
aI122
aI124
aI126
aI128
aI130
aI132
aI134
aI136
aI138
aI140
aI142
aI144
aI146
aI148
aI150
aI152
aI154
aI156
aI158
aI160
aI162
aI164
aI166
aI168
aI170
aI172
aI174
aI176
aI178
aI180
aI182
aI184
aI186
aI188
aI190
aI192
aI194
aI196
aI198
aI200
aI202
aI204
aI206
aI208
aI210
aI212
aI214
aI216
aI218
aI220
aI222
aI224
aI226
aI228
aI230
aI232
aI234
aI236
aI238
aI240
aI242
aI244
aI246
aI248
aI250
aI252
aI254
aI256
aI258
aI260
aI262
aI264
aI266
aI268
aI270
aI272
aI274
aI276
aI278
aI280
aI282
aI284
aI286
aI288
aI290
aI292
aI294
aI296
aI298
aI300
aI302
aI304
aI306
aI308
aI310
aI312
aI314
aI316
aI318
aI320
aI322
aI324
aI326
aI328
aI330
aI332
aI334
aI336
aI338
aI340
aI342
aI344
aI346
aI348
aI350
aI352
aI354
aI356
aI358
aI360
aI362
aI364
aI366
aI368
aI370
aI372
aI374
aI376
aI378
aI380
aI382
aI384
aI386
aI388
aI390
aI392
aI394
aI396
aI398
aI400
aI402
aI404
aI406
aI408
aI410
aI412
aI414
aI416
aI418
aI420
aI422
aI424
aI426
aI428
aI430
aI432
aI434
aI436
aI438
aI440
aI442
aI444
aI446
aI448
aI450
aI452
aI454
aI456
aI458
aI460
aI462
aI464
aI466
aI468
aI470
aI472
aI474
aI476
aI478
aI480
aI482
aI484
aI486
aI488
aI490
aI492
aI494
aI496
aI498
aI500
aI502
aI504
aI506
aI508
aI510
aI512
aI514
aI516
aI518
aI520
aI522
aI524
aI526
aI528
aI530
aI532
aI534
aI536
aI538
aI540
aI542
aI544
aI546
aI548
aI550
aI552
aI554
aI556
aI558
aI560
aI562
aI564
aI566
aI568
aI570
aI572
aI574
aI576
aI578
aI580
aI582
aI584
aI586
aI588
aI590
aI592
aI594
aI596
aI598
aI600
aI602
aI604
aI606
aI608
aI610
aI612
aI614
aI616
aI618
aI620
aI622
aI624
aI626
aI628
aI630
aI632
aI634
aI636
aI638
aI640
aI642
aI644
aI646
aI648
aI650
aI652
aI654
aI656
aI658
aI660
aI662
aI664
aI666
aI668
aI670
aI672
aI674
aI676
aI678
aI680
aI682
aI683
aI685
aI687
aI689
aI691
aI693
aI695
aI697
aI699
aI701
aI703
aI705
aI707
aI709
aI711
aI713
aI715
aI717
aI719
aI721
aI723
aI725
aI727
aI729
aI731
aI733
aI735
aI737
aI739
aI741
aI743
aI745
aI747
aI749
aI751
aI753
aI755
aI757
aI759
aI761
aI763
aI765
aI767
aI769
aI771
aI773
aI775
aI777
aI779
aI781
aI783
aI785
aI787
aI789
aI791
aI793
aI795
aI797
aI799
aI801
aI803
aI805
aI807
aI809
aI811
aI813
aI815
aI817
aI819
aI821
aI823
aI825
aI827
aI829
aI831
aI833
aI835
aI837
aI839
aI841
aI843
aI845
aI847
aI849
aI851
aI853
aI855
aI857
aI859
aI861
aI863
aI865
aI867
aI869
aI871
aI873
aI875
aI877
aI879
aI881
aI883
aI885
aI887
aI889
aI891
aI893
aI895
aI897
aI899
aI901
aI903
aI905
aI907
aI909
aI911
aI913
aI915
aI917
aI919
aI921
aI923
aI925
aI927
aI929
aI931
aI933
aI935
aI937
aI939
aI941
aI943
aI945
aI947
aI949
aI951
aI953
aI955
aI957
aI959
aI961
aI963
aI965
aI967
aI969
aI971
aI973
aI975
aI977
aI979
aI981
aI983
aI985
aI987
aI989
aI991
aI993
aI995
aI997
aI999
aI1001
aI1003
aI1005
aI1007
aI1009
aI1011
aI1013
aI1015
aI1017
aI1019
aI1021
aI1023
aI1025
aI1027
aI1029
aI1031
aI1033
aI1035
aI1037
aI1039
aI1041
aI1043
aI1045
aI1047
aI1049
aI1051
aI1053
aI1055
aI1057
aI1059
aI1061
aI1063
aI1065
aI1067
aI1069
aI1071
aI1073
aI1075
aI1077
aI1079
aI1081
aI1083
aI1085
aI1087
aI1089
aI1091
aI1093
aI1095
aI1097
aI1099
aI1101
aI1103
aI1105
aI1107
aI1109
aI1111
aI1113
aI1115
aI1117
aI1119
aI1121
aI1123
aI1125
aI1127
aI1129
aI1131
aI1133
aI1135
aI1137
aI1139
aI1141
aI1143
aI1145
aI1147
aI1149
aI1151
aI1153
aI1155
aI1157
aI1159
aI1161
aI1163
aI1165
aI1167
aI1169
aI1171
aI1173
aI1175
aI1177
aI1179
aI1181
aI1183
aI1185
aI1187
aI1189
aI1191
aI1193
aI1195
aI1197
aI1199
aI1201
aI1203
aI1205
aI1207
aI1209
aI1211
aI1213
aI1215
aI1217
aI1219
aI1221
aI1223
aI1225
aI1227
aI1229
aI1231
aI1233
aI1235
aI1237
aI1239
aI1241
aI1243
aI1245
aI1247
aI1249
aI1251
aI1253
aI1255
aI1257
aI1259
aI1261
aI1263
aI1265
aI1267
aI1269
aI1271
aI1273
aI1275
aI1277
aI1279
aI1281
aI1283
aI1285
aI1287
aI1289
aI1291
aI1293
aI1295
aI1297
aI1299
aI1301
aI1303
aI1305
aI1307
aI1309
aI1311
aI1313
aI1315
aI1317
aI1319
aI1321
aI1323
aI1325
aI1327
aI1329
aI1331
aI1333
aI1335
aI1337
aI1339
aI1341
aI1343
aI1345
aI1347
aI1349
aI1351
aI1353
aI1355
aI1357
aI1359
aI1361
aI1363
aI1365
aI1366
aI1368
aI1370
aI1372
aI1374
aI1376
aI1378
aI1380
aI1382
aI1384
aI1386
aI1388
aI1390
aI1392
aI1394
aI1396
aI1398
aI1400
aI1402
aI1404
aI1406
aI1408
aI1410
aI1412
aI1414
aI1416
aI1418
aI1420
aI1422
aI1424
aI1426
aI1428
aI1430
aI1432
aI1434
aI1436
aI1438
aI1440
aI1442
aI1444
aI1446
aI1448
aI1450
aI1452
aI1454
aI1456
aI1458
aI1460
aI1462
aI1464
aI1466
aI1468
aI1470
aI1472
aI1474
aI1476
aI1478
aI1480
aI1482
aI1484
aI1486
aI1488
aI1490
aI1492
aI1494
aI1496
aI1498
aI1500
aI1502
aI1504
aI1506
aI1508
aI1510
aI1512
aI1514
aI1516
aI1518
aI1520
aI1522
aI1524
aI1526
aI1528
aI1530
aI1532
aI1534
aI1536
aI1538
aI1540
aI1542
aI1544
aI1546
aI1548
aI1550
aI1552
aI1554
aI1556
aI1558
aI1560
aI1562
aI1564
aI1566
aI1568
aI1570
aI1572
aI1574
aI1576
aI1578
aI1580
aI1582
aI1584
aI1586
aI1588
aI1590
aI1592
aI1594
aI1596
aI1598
aI1600
aI1602
aI1604
aI1606
aI1608
aI1610
aI1612
aI1614
aI1616
aI1618
aI1620
aI1622
aI1624
aI1626
aI1628
aI1630
aI1632
aI1634
aI1636
aI1638
aI1640
aI1642
aI1644
aI1646
aI1648
aI1650
aI1652
aI1654
aI1656
aI1658
aI1660
aI1662
aI1664
aI1666
aI1668
aI1670
aI1672
aI1674
aI1676
aI1678
aI1680
aI1682
aI1684
aI1686
aI1688
aI1690
aI1692
aI1694
aI1696
aI1698
aI1700
aI1702
aI1704
aI1706
aI1708
aI1710
aI1712
aI1714
aI1716
aI1718
aI1720
aI1722
aI1724
aI1726
aI1728
aI1730
aI1732
aI1734
aI1736
aI1738
aI1740
aI1742
aI1744
aI1746
aI1748
aI1750
aI1752
aI1754
aI1756
aI1758
aI1760
aI1762
aI1764
aI1766
aI1768
aI1770
aI1772
aI1774
aI1776
aI1778
aI1780
aI1782
aI1784
aI1786
aI1788
aI1790
aI1792
aI1794
aI1796
aI1798
aI1800
aI1802
aI1804
aI1806
aI1808
aI1810
aI1812
aI1814
aI1816
aI1818
aI1820
aI1822
aI1824
aI1826
aI1828
aI1830
aI1832
aI1834
aI1836
aI1838
aI1840
aI1842
aI1844
aI1846
aI1848
aI1850
aI1852
aI1854
aI1856
aI1858
aI1860
aI1862
aI1864
aI1866
aI1868
aI1870
aI1872
aI1874
aI1876
aI1878
aI1880
aI1882
aI1884
aI1886
aI1888
aI1890
aI1892
aI1894
aI1896
aI1898
aI1900
aI1902
aI1904
aI1906
aI1908
aI1910
aI1912
aI1914
aI1916
aI1918
aI1920
aI1922
aI1924
aI1926
aI1928
aI1930
aI1932
aI1934
aI1936
aI1938
aI1940
aI1942
aI1944
aI1946
aI1948
aI1950
aI1952
aI1954
aI1956
aI1958
aI1960
aI1962
aI1964
aI1966
aI1968
aI1970
aI1972
aI1974
aI1976
aI1978
aI1980
aI1982
aI1984
aI1986
aI1988
aI1990
aI1992
aI1994
aI1996
aI1998
aI2000
aI2002
aI2004
aI2006
aI2008
aI2010
aI2012
aI2014
aI2016
aI2018
aI2020
aI2022
aI2024
aI2026
aI2028
aI2030
aI2032
aI2034
aI2036
aI2038
aI2040
aI2042
aI2044
aI2046
asI5
(lp5
I1
aI2
aI3
aI4
aI5
aI6
aI7
aI8
aI9
aI10
aI11
aI12
aI13
aI14
aI15
aI16
aI17
aI18
aI19
aI20
aI21
aI22
aI23
aI24
aI25
aI26
aI27
aI28
aI29
aI30
aI31
aI32
aI33
aI34
aI35
aI36
aI37
aI38
aI39
aI40
aI41
aI42
aI43
aI44
aI45
aI46
aI47
aI48
aI49
aI50
aI51
aI52
aI53
aI54
aI55
aI56
aI57
aI58
aI59
aI60
aI61
aI62
aI63
aI64
aI65
aI66
aI67
aI68
aI69
aI70
aI71
aI72
aI73
aI74
aI75
aI76
aI77
aI78
aI79
aI80
aI81
aI82
aI83
aI84
aI85
aI86
aI87
aI88
aI89
aI90
aI91
aI92
aI93
aI94
aI95
aI96
aI97
aI98
aI99
aI100
aI101
aI102
aI103
aI104
aI105
aI106
aI107
aI108
aI109
aI110
aI111
aI112
aI113
aI114
aI115
aI116
aI117
aI118
aI119
aI120
aI121
aI122
aI123
aI124
aI125
aI126
aI127
aI128
aI129
aI130
aI131
aI132
aI133
aI134
aI135
aI136
aI137
aI138
aI139
aI140
aI141
aI142
aI143
aI144
aI145
aI146
aI147
aI148
aI149
aI150
aI151
aI152
aI153
aI154
aI155
aI156
aI157
aI158
aI159
aI160
aI161
aI162
aI163
aI164
aI165
aI166
aI167
aI168
aI169
aI170
aI171
aI172
aI173
aI174
aI175
aI176
aI177
aI178
aI179
aI180
aI181
aI182
aI183
aI184
aI185
aI186
aI187
aI188
aI189
aI190
aI191
aI192
aI193
aI194
aI195
aI196
aI197
aI198
aI199
aI200
aI201
aI202
aI203
aI204
aI205
aI206
aI207
aI208
aI209
aI210
aI211
aI212
aI213
aI214
aI215
aI216
aI217
aI218
aI219
aI220
aI221
aI222
aI223
aI224
aI225
aI226
aI227
aI228
aI229
aI230
aI231
aI232
aI233
aI234
aI235
aI236
aI237
aI238
aI239
aI240
aI241
aI242
aI243
aI244
aI245
aI246
aI247
aI248
aI249
aI250
aI251
aI252
aI253
aI254
aI255
aI256
aI256
aI257
aI258
aI259
aI260
aI261
aI262
aI263
aI264
aI265
aI266
aI267
aI268
aI269
aI270
aI271
aI272
aI273
aI274
aI275
aI276
aI277
aI278
aI279
aI280
aI281
aI282
aI283
aI284
aI285
aI286
aI287
aI288
aI289
aI290
aI291
aI292
aI293
aI294
aI295
aI296
aI297
aI298
aI299
aI300
aI301
aI302
aI303
aI304
aI305
aI306
aI307
aI308
aI309
aI310
aI311
aI312
aI313
aI314
aI315
aI316
aI317
aI318
aI319
aI320
aI321
aI322
aI323
aI324
aI325
aI326
aI327
aI328
aI329
aI330
aI331
aI332
aI333
aI334
aI335
aI336
aI337
aI338
aI339
aI340
aI341
aI342
aI343
aI344
aI345
aI346
aI347
aI348
aI349
aI350
aI351
aI352
aI353
aI354
aI355
aI356
aI357
aI358
aI359
aI360
aI361
aI362
aI363
aI364
aI365
aI366
aI367
aI368
aI369
aI370
aI371
aI372
aI373
aI374
aI375
aI376
aI377
aI378
aI379
aI380
aI381
aI382
aI383
aI384
aI385
aI386
aI387
aI388
aI389
aI390
aI391
aI392
aI393
aI394
aI395
aI396
aI397
aI398
aI399
aI400
aI401
aI402
aI403
aI404
aI405
aI406
aI407
aI408
aI409
aI410
aI411
aI412
aI413
aI414
aI415
aI416
aI417
aI418
aI419
aI420
aI421
aI422
aI423
aI424
aI425
aI426
aI427
aI428
aI429
aI430
aI431
aI432
aI433
aI434
aI435
aI436
aI437
aI438
aI439
aI440
aI441
aI442
aI443
aI444
aI445
aI446
aI447
aI448
aI449
aI450
aI451
aI452
aI453
aI454
aI455
aI456
aI457
aI458
aI459
aI460
aI461
aI462
aI463
aI464
aI465
aI466
aI467
aI468
aI469
aI470
aI471
aI472
aI473
aI474
aI475
aI476
aI477
aI478
aI479
aI480
aI481
aI482
aI483
aI484
aI485
aI486
aI487
aI488
aI489
aI490
aI491
aI492
aI493
aI494
aI495
aI496
aI497
aI498
aI499
aI500
aI501
aI502
aI503
aI504
aI505
aI506
aI507
aI508
aI509
aI510
aI511
asI6
(lp6
I1
aI2
aI3
aI4
aI5
aI6
aI7
aI8
aI9
aI10
aI11
aI12
aI13
aI14
aI15
aI16
aI17
aI18
aI19
aI20
aI21
aI22
aI23
aI24
aI25
aI26
aI27
aI28
aI29
aI30
aI31
aI32
aI33
aI34
aI35
aI36
aI37
aI38
aI39
aI40
aI41
aI42
aI43
aI44
aI45
aI46
aI47
aI48
aI49
aI50
aI51
aI52
aI53
aI54
aI55
aI56
aI57
aI58
aI59
aI60
aI61
aI62
aI63
aI64
aI65
aI66
aI67
aI68
aI69
aI70
aI71
aI72
aI73
aI74
aI75
aI76
aI77
aI78
aI79
aI80
aI81
aI82
aI83
aI84
aI85
aI86
aI87
aI88
aI89
aI90
aI91
aI92
aI93
aI94
aI95
aI96
aI97
aI98
aI99
aI100
aI101
aI102
aI103
aI104
aI105
aI106
aI107
aI108
aI109
aI110
aI111
aI112
aI113
aI114
aI115
aI116
aI117
aI118
aI119
aI120
aI121
aI122
aI123
aI124
aI125
aI126
aI127
aI128
aI129
aI130
aI131
aI132
aI133
aI134
aI135
aI136
aI137
aI138
aI139
aI140
aI141
aI142
aI143
aI144
aI145
aI146
aI147
aI148
aI149
aI150
aI151
aI152
aI153
aI154
aI155
aI156
aI157
aI158
aI159
aI160
aI161
aI162
aI163
aI164
aI165
aI166
aI167
aI168
aI169
aI170
aI171
aI172
aI173
aI174
aI175
aI176
aI177
aI178
aI179
aI180
aI181
aI182
aI183
aI184
aI185
aI186
aI187
aI188
aI189
aI190
aI191
aI192
aI193
aI194
aI195
aI196
aI197
aI198
aI199
aI200
aI201
aI202
aI203
aI204
aI205
aI206
aI207
aI208
aI209
aI210
aI211
aI212
aI213
aI214
aI215
aI216
aI217
aI218
aI219
aI220
aI221
aI222
aI223
aI224
aI225
aI226
aI227
aI228
aI229
aI230
aI231
aI232
aI233
aI234
aI235
aI236
aI237
aI238
aI239
aI240
aI241
aI242
aI243
aI244
aI245
aI246
aI247
aI248
aI249
aI250
aI251
aI252
aI253
aI254
aI255
aI256
aI256
aI257
aI258
aI259
aI260
aI261
aI262
aI263
aI264
aI265
aI266
aI267
aI268
aI269
aI270
aI271
aI272
aI273
aI274
aI275
aI276
aI277
aI278
aI279
aI280
aI281
aI282
aI283
aI284
aI285
aI286
aI287
aI288
aI289
aI290
aI291
aI292
aI293
aI294
aI295
aI296
aI297
aI298
aI299
aI300
aI301
aI302
aI303
aI304
aI305
aI306
aI307
aI308
aI309
aI310
aI311
aI312
aI313
aI314
aI315
aI316
aI317
aI318
aI319
aI320
aI321
aI322
aI323
aI324
aI325
aI326
aI327
aI328
aI329
aI330
aI331
aI332
aI333
aI334
aI335
aI336
aI337
aI338
aI339
aI340
aI341
aI342
aI343
aI344
aI345
aI346
aI347
aI348
aI349
aI350
aI351
aI352
aI353
aI354
aI355
aI356
aI357
aI358
aI359
aI360
aI361
aI362
aI363
aI364
aI365
aI366
aI367
aI368
aI369
aI370
aI371
aI372
aI373
aI374
aI375
aI376
aI377
aI378
aI379
aI380
aI381
aI382
aI383
aI384
aI385
aI386
aI387
aI388
aI389
aI390
aI391
aI392
aI393
aI394
aI395
aI396
aI397
aI398
aI399
aI400
aI401
aI402
aI403
aI404
aI405
aI406
aI407
aI408
aI409
aI410
aI411
aI412
aI413
aI414
aI415
aI416
aI417
aI418
aI419
aI420
aI421
aI422
aI423
aI424
aI425
aI426
aI427
aI428
aI429
aI430
aI431
aI432
aI433
aI434
aI435
aI436
aI437
aI438
aI439
aI440
aI441
aI442
aI443
aI444
aI445
aI446
aI447
aI448
aI449
aI450
aI451
aI452
aI453
aI454
aI455
aI456
aI457
aI458
aI459
aI460
aI461
aI462
aI463
aI464
aI465
aI466
aI467
aI468
aI469
aI470
aI471
aI472
aI473
aI474
aI475
aI476
aI477
aI478
aI479
aI480
aI481
aI482
aI483
aI484
aI485
aI486
aI487
aI488
aI489
aI490
aI491
aI492
aI493
aI494
aI495
aI496
aI497
aI498
aI499
aI500
aI501
aI502
aI503
aI504
aI505
aI506
aI507
aI508
aI509
aI510
aI511
asI7
(lp7
I1
aI2
aI3
aI4
aI5
aI6
aI7
aI8
aI9
aI10
aI11
aI12
aI13
aI14
aI15
aI16
aI17
aI18
aI19
aI20
aI21
aI22
aI23
aI24
aI25
aI26
aI27
aI28
aI29
aI30
aI31
aI32
aI33
aI34
aI35
aI36
aI37
aI38
aI39
aI40
aI41
aI42
aI43
aI44
aI45
aI46
aI47
aI48
aI49
aI50
aI51
aI52
aI53
aI54
aI55
aI56
aI57
aI58
aI59
aI60
aI61
aI62
aI63
aI64
aI65
aI66
aI67
aI68
aI69
aI70
aI71
aI72
aI73
aI74
aI75
aI76
aI77
aI78
aI79
aI80
aI81
aI82
aI83
aI84
aI85
aI86
aI87
aI88
aI89
aI90
aI91
aI92
aI93
aI94
aI95
aI96
aI97
aI98
aI99
aI100
aI101
aI102
aI103
aI104
aI105
aI106
aI107
aI108
aI109
aI110
aI111
aI112
aI113
aI114
aI115
aI116
aI117
aI118
aI119
aI120
aI121
aI122
aI123
aI124
aI125
aI126
aI127
aI128
aI129
aI130
aI131
aI132
aI133
aI134
aI135
aI136
aI137
aI138
aI139
aI140
aI141
aI142
aI143
aI144
aI145
aI146
aI147
aI148
aI149
aI150
aI151
aI152
aI153
aI154
aI155
aI156
aI157
aI158
aI159
aI160
aI161
aI162
aI163
aI164
aI165
aI166
aI167
aI168
aI169
aI170
aI171
aI172
aI173
aI174
aI175
aI176
aI177
aI178
aI179
aI180
aI181
aI182
aI183
aI184
aI185
aI186
aI187
aI188
aI189
aI190
aI191
aI192
aI193
aI194
aI195
aI196
aI197
aI198
aI199
aI200
aI201
aI202
aI203
aI204
aI205
aI206
aI207
aI208
aI209
aI210
aI211
aI212
aI213
aI214
aI215
aI216
aI217
aI218
aI219
aI220
aI221
aI222
aI223
aI224
aI225
aI226
aI227
aI228
aI229
aI230
aI231
aI232
aI233
aI234
aI235
aI236
aI237
aI238
aI239
aI240
aI241
aI242
aI243
aI244
aI245
aI246
aI247
aI248
aI249
aI250
aI251
aI252
aI253
aI254
aI255
aI256
aI256
aI257
aI258
aI259
aI260
aI261
aI262
aI263
aI264
aI265
aI266
aI267
aI268
aI269
aI270
aI271
aI272
aI273
aI274
aI275
aI276
aI277
aI278
aI279
aI280
aI281
aI282
aI283
aI284
aI285
aI286
aI287
aI288
aI289
aI290
aI291
aI292
aI293
aI294
aI295
aI296
aI297
aI298
aI299
aI300
aI301
aI302
aI303
aI304
aI305
aI306
aI307
aI308
aI309
aI310
aI311
aI312
aI313
aI314
aI315
aI316
aI317
aI318
aI319
aI320
aI321
aI322
aI323
aI324
aI325
aI326
aI327
aI328
aI329
aI330
aI331
aI332
aI333
aI334
aI335
aI336
aI337
aI338
aI339
aI340
aI341
aI342
aI343
aI344
aI345
aI346
aI347
aI348
aI349
aI350
aI351
aI352
aI353
aI354
aI355
aI356
aI357
aI358
aI359
aI360
aI361
aI362
aI363
aI364
aI365
aI366
aI367
aI368
aI369
aI370
aI371
aI372
aI373
aI374
aI375
aI376
aI377
aI378
aI379
aI380
aI381
aI382
aI383
aI384
aI385
aI386
aI387
aI388
aI389
aI390
aI391
aI392
aI393
aI394
aI395
aI396
aI397
aI398
aI399
aI400
aI401
aI402
aI403
aI404
aI405
aI406
aI407
aI408
aI409
aI410
aI411
aI412
aI413
aI414
aI415
aI416
aI417
aI418
aI419
aI420
aI421
aI422
aI423
aI424
aI425
aI426
aI427
aI428
aI429
aI430
aI431
aI432
aI433
aI434
aI435
aI436
aI437
aI438
aI439
aI440
aI441
aI442
aI443
aI444
aI445
aI446
aI447
aI448
aI449
aI450
aI451
aI452
aI453
aI454
aI455
aI456
aI457
aI458
aI459
aI460
aI461
aI462
aI463
aI464
aI465
aI466
aI467
aI468
aI469
aI470
aI471
aI472
aI473
aI474
aI475
aI476
aI477
aI478
aI479
aI480
aI481
aI482
aI483
aI484
aI485
aI486
aI487
aI488
aI489
aI490
aI491
aI492
aI493
aI494
aI495
aI496
aI497
aI498
aI499
aI500
aI501
aI502
aI503
aI504
aI505
aI506
aI507
aI508
aI509
aI510
aI511
asI8
(lp8
I1
aI2
aI3
aI4
aI5
aI6
aI7
aI8
aI9
aI10
aI11
aI12
aI13
aI14
aI15
aI16
aI17
aI18
aI19
aI20
aI21
aI22
aI23
aI24
aI25
aI26
aI27
aI28
aI29
aI30
aI31
aI32
aI33
aI34
aI35
aI36
aI37
aI38
aI39
aI40
aI41
aI42
aI43
aI44
aI45
aI46
aI47
aI48
aI49
aI50
aI51
aI52
aI53
aI54
aI55
aI56
aI57
aI58
aI59
aI60
aI61
aI62
aI63
aI64
aI65
aI66
aI67
aI68
aI69
aI70
aI71
aI72
aI73
aI74
aI75
aI76
aI77
aI78
aI79
aI80
aI81
aI82
aI83
aI84
aI85
aI86
aI87
aI88
aI89
aI90
aI91
aI92
aI93
aI94
aI95
aI96
aI97
aI98
aI99
aI100
aI101
aI102
aI103
aI104
aI105
aI106
aI107
aI108
aI109
aI110
aI111
aI112
aI113
aI114
aI115
aI116
aI117
aI118
aI119
aI120
aI121
aI122
aI123
aI124
aI125
aI126
aI127
aI128
aI129
aI130
aI131
aI132
aI133
aI134
aI135
aI136
aI137
aI138
aI139
aI140
aI141
aI142
aI143
aI144
aI145
aI146
aI147
aI148
aI149
aI150
aI151
aI152
aI153
aI154
aI155
aI156
aI157
aI158
aI159
aI160
aI161
aI162
aI163
aI164
aI165
aI166
aI167
aI168
aI169
aI170
aI171
aI172
aI173
aI174
aI175
aI176
aI177
aI178
aI179
aI180
aI181
aI182
aI183
aI184
aI185
aI186
aI187
aI188
aI189
aI190
aI191
aI192
aI193
aI194
aI195
aI196
aI197
aI198
aI199
aI200
aI201
aI202
aI203
aI204
aI205
aI206
aI207
aI208
aI209
aI210
aI211
aI212
aI213
aI214
aI215
aI216
aI217
aI218
aI219
aI220
aI221
aI222
aI223
aI224
aI225
aI226
aI227
aI228
aI229
aI230
aI231
aI232
aI233
aI234
aI235
aI236
aI237
aI238
aI239
aI240
aI241
aI242
aI243
aI244
aI245
aI246
aI247
aI248
aI249
aI250
aI251
aI252
aI253
aI254
aI255
aI256
aI257
aI258
aI259
aI260
aI261
aI262
aI263
aI264
aI265
aI266
aI267
aI268
aI269
aI270
aI271
aI272
aI273
aI274
aI275
aI276
aI277
aI278
aI279
aI280
aI281
aI282
aI283
aI284
aI285
aI286
aI287
aI288
aI289
aI290
aI291
aI292
aI293
aI294
aI295
aI296
aI297
aI298
aI299
aI300
aI301
aI302
aI303
aI304
aI305
aI306
aI307
aI308
aI309
aI310
aI311
aI312
aI313
aI314
aI315
aI316
aI317
aI318
aI319
aI320
aI321
aI322
aI323
aI324
aI325
aI326
aI327
aI328
aI329
aI330
aI331
aI332
aI333
aI334
aI335
aI336
aI337
aI338
aI339
aI340
aI341
aI342
aI343
aI344
aI345
aI346
aI347
aI348
aI349
aI350
aI351
aI352
aI353
aI354
aI355
aI356
aI357
aI358
aI359
aI360
aI361
aI362
aI363
aI364
aI365
aI366
aI367
aI368
aI369
aI370
aI371
aI372
aI373
aI374
aI375
aI376
aI377
aI378
aI379
aI380
aI381
aI382
aI383
aI384
aI385
aI386
aI387
aI388
aI389
aI390
aI391
aI392
aI393
aI394
aI395
aI396
aI397
aI398
aI399
aI400
aI401
aI402
aI403
aI404
aI405
aI406
aI407
aI408
aI409
aI410
aI411
aI412
aI413
aI414
aI415
aI416
aI417
aI418
aI419
aI420
aI421
aI422
aI423
aI424
aI425
aI426
aI427
aI428
aI429
aI430
aI431
aI432
aI433
aI434
aI435
aI436
aI437
aI438
aI439
aI440
aI441
aI442
aI443
aI444
aI445
aI446
aI447
aI448
aI449
aI450
aI451
aI452
aI453
aI454
aI455
aI456
aI457
aI458
aI459
aI460
aI461
aI462
aI463
aI464
aI465
aI466
aI467
aI468
aI469
aI470
aI471
aI472
aI473
aI474
aI475
aI476
aI477
aI478
aI479
aI480
aI481
aI482
aI483
aI484
aI485
aI486
aI487
aI488
aI489
aI490
aI491
aI492
aI493
aI494
aI495
aI496
aI497
aI498
aI499
aI500
aI501
aI502
aI503
aI504
aI505
aI506
aI507
aI508
aI509
aI510
aI511
aI512
aI512
aI513
aI514
aI515
aI516
aI517
aI518
aI519
aI520
aI521
aI522
aI523
aI524
aI525
aI526
aI527
aI528
aI529
aI530
aI531
aI532
aI533
aI534
aI535
aI536
aI537
aI538
aI539
aI540
aI541
aI542
aI543
aI544
aI545
aI546
aI547
aI548
aI549
aI550
aI551
aI552
aI553
aI554
aI555
aI556
aI557
aI558
aI559
aI560
aI561
aI562
aI563
aI564
aI565
aI566
aI567
aI568
aI569
aI570
aI571
aI572
aI573
aI574
aI575
aI576
aI577
aI578
aI579
aI580
aI581
aI582
aI583
aI584
aI585
aI586
aI587
aI588
aI589
aI590
aI591
aI592
aI593
aI594
aI595
aI596
aI597
aI598
aI599
aI600
aI601
aI602
aI603
aI604
aI605
aI606
aI607
aI608
aI609
aI610
aI611
aI612
aI613
aI614
aI615
aI616
aI617
aI618
aI619
aI620
aI621
aI622
aI623
aI624
aI625
aI626
aI627
aI628
aI629
aI630
aI631
aI632
aI633
aI634
aI635
aI636
aI637
aI638
aI639
aI640
aI641
aI642
aI643
aI644
aI645
aI646
aI647
aI648
aI649
aI650
aI651
aI652
aI653
aI654
aI655
aI656
aI657
aI658
aI659
aI660
aI661
aI662
aI663
aI664
aI665
aI666
aI667
aI668
aI669
aI670
aI671
aI672
aI673
aI674
aI675
aI676
aI677
aI678
aI679
aI680
aI681
aI682
aI683
aI684
aI685
aI686
aI687
aI688
aI689
aI690
aI691
aI692
aI693
aI694
aI695
aI696
aI697
aI698
aI699
aI700
aI701
aI702
aI703
aI704
aI705
aI706
aI707
aI708
aI709
aI710
aI711
aI712
aI713
aI714
aI715
aI716
aI717
aI718
aI719
aI720
aI721
aI722
aI723
aI724
aI725
aI726
aI727
aI728
aI729
aI730
aI731
aI732
aI733
aI734
aI735
aI736
aI737
aI738
aI739
aI740
aI741
aI742
aI743
aI744
aI745
aI746
aI747
aI748
aI749
aI750
aI751
aI752
aI753
aI754
aI755
aI756
aI757
aI758
aI759
aI760
aI761
aI762
aI763
aI764
aI765
aI766
aI767
aI768
aI769
aI770
aI771
aI772
aI773
aI774
aI775
aI776
aI777
aI778
aI779
aI780
aI781
aI782
aI783
aI784
aI785
aI786
aI787
aI788
aI789
aI790
aI791
aI792
aI793
aI794
aI795
aI796
aI797
aI798
aI799
aI800
aI801
aI802
aI803
aI804
aI805
aI806
aI807
aI808
aI809
aI810
aI811
aI812
aI813
aI814
aI815
aI816
aI817
aI818
aI819
aI820
aI821
aI822
aI823
aI824
aI825
aI826
aI827
aI828
aI829
aI830
aI831
aI832
aI833
aI834
aI835
aI836
aI837
aI838
aI839
aI840
aI841
aI842
aI843
aI844
aI845
aI846
aI847
aI848
aI849
aI850
aI851
aI852
aI853
aI854
aI855
aI856
aI857
aI858
aI859
aI860
aI861
aI862
aI863
aI864
aI865
aI866
aI867
aI868
aI869
aI870
aI871
aI872
aI873
aI874
aI875
aI876
aI877
aI878
aI879
aI880
aI881
aI882
aI883
aI884
aI885
aI886
aI887
aI888
aI889
aI890
aI891
aI892
aI893
aI894
aI895
aI896
aI897
aI898
aI899
aI900
aI901
aI902
aI903
aI904
aI905
aI906
aI907
aI908
aI909
aI910
aI911
aI912
aI913
aI914
aI915
aI916
aI917
aI918
aI919
aI920
aI921
aI922
aI923
aI924
aI925
aI926
aI927
aI928
aI929
aI930
aI931
aI932
aI933
aI934
aI935
aI936
aI937
aI938
aI939
aI940
aI941
aI942
aI943
aI944
aI945
aI946
aI947
aI948
aI949
aI950
aI951
aI952
aI953
aI954
aI955
aI956
aI957
aI958
aI959
aI960
aI961
aI962
aI963
aI964
aI965
aI966
aI967
aI968
aI969
aI970
aI971
aI972
aI973
aI974
aI975
aI976
aI977
aI978
aI979
aI980
aI981
aI982
aI983
aI984
aI985
aI986
aI987
aI988
aI989
aI990
aI991
aI992
aI993
aI994
aI995
aI996
aI997
aI998
aI999
aI1000
aI1001
aI1002
aI1003
aI1004
aI1005
aI1006
aI1007
aI1008
aI1009
aI1010
aI1011
aI1012
aI1013
aI1014
aI1015
aI1016
aI1017
aI1018
aI1019
aI1020
aI1021
aI1022
aI1023
asI9
(lp9
I1
aI2
aI3
aI4
aI5
aI6
aI7
aI8
aI9
aI10
aI11
aI12
aI13
aI14
aI15
aI16
aI17
aI18
aI19
aI20
aI21
aI22
aI23
aI24
aI25
aI26
aI27
aI28
aI29
aI30
aI31
aI32
aI33
aI34
aI35
aI36
aI37
aI38
aI39
aI40
aI41
aI42
aI43
aI44
aI45
aI46
aI47
aI48
aI49
aI50
aI51
aI52
aI53
aI54
aI55
aI56
aI57
aI58
aI59
aI60
aI61
aI62
aI63
aI64
aI65
aI66
aI67
aI68
aI69
aI70
aI71
aI72
aI73
aI74
aI75
aI76
aI77
aI78
aI79
aI80
aI81
aI82
aI83
aI84
aI85
aI86
aI87
aI88
aI89
aI90
aI91
aI92
aI93
aI94
aI95
aI96
aI97
aI98
aI99
aI100
aI101
aI102
aI103
aI104
aI105
aI106
aI107
aI108
aI109
aI110
aI111
aI112
aI113
aI114
aI115
aI116
aI117
aI118
aI119
aI120
aI121
aI122
aI123
aI124
aI125
aI126
aI127
aI128
aI129
aI130
aI131
aI132
aI133
aI134
aI135
aI136
aI137
aI138
aI139
aI140
aI141
aI142
aI143
aI144
aI145
aI146
aI147
aI148
aI149
aI150
aI151
aI152
aI153
aI154
aI155
aI156
aI157
aI158
aI159
aI160
aI161
aI162
aI163
aI164
aI165
aI166
aI167
aI168
aI169
aI170
aI171
aI172
aI173
aI174
aI175
aI176
aI177
aI178
aI179
aI180
aI181
aI182
aI183
aI184
aI185
aI186
aI187
aI188
aI189
aI190
aI191
aI192
aI193
aI194
aI195
aI196
aI197
aI198
aI199
aI200
aI201
aI202
aI203
aI204
aI205
aI206
aI207
aI208
aI209
aI210
aI211
aI212
aI213
aI214
aI215
aI216
aI217
aI218
aI219
aI220
aI221
aI222
aI223
aI224
aI225
aI226
aI227
aI228
aI229
aI230
aI231
aI232
aI233
aI234
aI235
aI236
aI237
aI238
aI239
aI240
aI241
aI242
aI243
aI244
aI245
aI246
aI247
aI248
aI249
aI250
aI251
aI252
aI253
aI254
aI255
aI256
aI257
aI258
aI259
aI260
aI261
aI262
aI263
aI264
aI265
aI266
aI267
aI268
aI269
aI270
aI271
aI272
aI273
aI274
aI275
aI276
aI277
aI278
aI279
aI280
aI281
aI282
aI283
aI284
aI285
aI286
aI287
aI288
aI289
aI290
aI291
aI292
aI293
aI294
aI295
aI296
aI297
aI298
aI299
aI300
aI301
aI302
aI303
aI304
aI305
aI306
aI307
aI308
aI309
aI310
aI311
aI312
aI313
aI314
aI315
aI316
aI317
aI318
aI319
aI320
aI321
aI322
aI323
aI324
aI325
aI326
aI327
aI328
aI329
aI330
aI331
aI332
aI333
aI334
aI335
aI336
aI337
aI338
aI339
aI340
aI341
aI342
aI343
aI344
aI345
aI346
aI347
aI348
aI349
aI350
aI351
aI352
aI353
aI354
aI355
aI356
aI357
aI358
aI359
aI360
aI361
aI362
aI363
aI364
aI365
aI366
aI367
aI368
aI369
aI370
aI371
aI372
aI373
aI374
aI375
aI376
aI377
aI378
aI379
aI380
aI381
aI382
aI383
aI384
aI385
aI386
aI387
aI388
aI389
aI390
aI391
aI392
aI393
aI394
aI395
aI396
aI397
aI398
aI399
aI400
aI401
aI402
aI403
aI404
aI405
aI406
aI407
aI408
aI409
aI410
aI411
aI412
aI413
aI414
aI415
aI416
aI417
aI418
aI419
aI420
aI421
aI422
aI423
aI424
aI425
aI426
aI427
aI428
aI429
aI430
aI431
aI432
aI433
aI434
aI435
aI436
aI437
aI438
aI439
aI440
aI441
aI442
aI443
aI444
aI445
aI446
aI447
aI448
aI449
aI450
aI451
aI452
aI453
aI454
aI455
aI456
aI457
aI458
aI459
aI460
aI461
aI462
aI463
aI464
aI465
aI466
aI467
aI468
aI469
aI470
aI471
aI472
aI473
aI474
aI475
aI476
aI477
aI478
aI479
aI480
aI481
aI482
aI483
aI484
aI485
aI486
aI487
aI488
aI489
aI490
aI491
aI492
aI493
aI494
aI495
aI496
aI497
aI498
aI499
aI500
aI501
aI502
aI503
aI504
aI505
aI506
aI507
aI508
aI509
aI510
aI511
aI512
aI512
aI513
aI514
aI515
aI516
aI517
aI518
aI519
aI520
aI521
aI522
aI523
aI524
aI525
aI526
aI527
aI528
aI529
aI530
aI531
aI532
aI533
aI534
aI535
aI536
aI537
aI538
aI539
aI540
aI541
aI542
aI543
aI544
aI545
aI546
aI547
aI548
aI549
aI550
aI551
aI552
aI553
aI554
aI555
aI556
aI557
aI558
aI559
aI560
aI561
aI562
aI563
aI564
aI565
aI566
aI567
aI568
aI569
aI570
aI571
aI572
aI573
aI574
aI575
aI576
aI577
aI578
aI579
aI580
aI581
aI582
aI583
aI584
aI585
aI586
aI587
aI588
aI589
aI590
aI591
aI592
aI593
aI594
aI595
aI596
aI597
aI598
aI599
aI600
aI601
aI602
aI603
aI604
aI605
aI606
aI607
aI608
aI609
aI610
aI611
aI612
aI613
aI614
aI615
aI616
aI617
aI618
aI619
aI620
aI621
aI622
aI623
aI624
aI625
aI626
aI627
aI628
aI629
aI630
aI631
aI632
aI633
aI634
aI635
aI636
aI637
aI638
aI639
aI640
aI641
aI642
aI643
aI644
aI645
aI646
aI647
aI648
aI649
aI650
aI651
aI652
aI653
aI654
aI655
aI656
aI657
aI658
aI659
aI660
aI661
aI662
aI663
aI664
aI665
aI666
aI667
aI668
aI669
aI670
aI671
aI672
aI673
aI674
aI675
aI676
aI677
aI678
aI679
aI680
aI681
aI682
aI683
aI684
aI685
aI686
aI687
aI688
aI689
aI690
aI691
aI692
aI693
aI694
aI695
aI696
aI697
aI698
aI699
aI700
aI701
aI702
aI703
aI704
aI705
aI706
aI707
aI708
aI709
aI710
aI711
aI712
aI713
aI714
aI715
aI716
aI717
aI718
aI719
aI720
aI721
aI722
aI723
aI724
aI725
aI726
aI727
aI728
aI729
aI730
aI731
aI732
aI733
aI734
aI735
aI736
aI737
aI738
aI739
aI740
aI741
aI742
aI743
aI744
aI745
aI746
aI747
aI748
aI749
aI750
aI751
aI752
aI753
aI754
aI755
aI756
aI757
aI758
aI759
aI760
aI761
aI762
aI763
aI764
aI765
aI766
aI767
aI768
aI769
aI770
aI771
aI772
aI773
aI774
aI775
aI776
aI777
aI778
aI779
aI780
aI781
aI782
aI783
aI784
aI785
aI786
aI787
aI788
aI789
aI790
aI791
aI792
aI793
aI794
aI795
aI796
aI797
aI798
aI799
aI800
aI801
aI802
aI803
aI804
aI805
aI806
aI807
aI808
aI809
aI810
aI811
aI812
aI813
aI814
aI815
aI816
aI817
aI818
aI819
aI820
aI821
aI822
aI823
aI824
aI825
aI826
aI827
aI828
aI829
aI830
aI831
aI832
aI833
aI834
aI835
aI836
aI837
aI838
aI839
aI840
aI841
aI842
aI843
aI844
aI845
aI846
aI847
aI848
aI849
aI850
aI851
aI852
aI853
aI854
aI855
aI856
aI857
aI858
aI859
aI860
aI861
aI862
aI863
aI864
aI865
aI866
aI867
aI868
aI869
aI870
aI871
aI872
aI873
aI874
aI875
aI876
aI877
aI878
aI879
aI880
aI881
aI882
aI883
aI884
aI885
aI886
aI887
aI888
aI889
aI890
aI891
aI892
aI893
aI894
aI895
aI896
aI897
aI898
aI899
aI900
aI901
aI902
aI903
aI904
aI905
aI906
aI907
aI908
aI909
aI910
aI911
aI912
aI913
aI914
aI915
aI916
aI917
aI918
aI919
aI920
aI921
aI922
aI923
aI924
aI925
aI926
aI927
aI928
aI929
aI930
aI931
aI932
aI933
aI934
aI935
aI936
aI937
aI938
aI939
aI940
aI941
aI942
aI943
aI944
aI945
aI946
aI947
aI948
aI949
aI950
aI951
aI952
aI953
aI954
aI955
aI956
aI957
aI958
aI959
aI960
aI961
aI962
aI963
aI964
aI965
aI966
aI967
aI968
aI969
aI970
aI971
aI972
aI973
aI974
aI975
aI976
aI977
aI978
aI979
aI980
aI981
aI982
aI983
aI984
aI985
aI986
aI987
aI988
aI989
aI990
aI991
aI992
aI993
aI994
aI995
aI996
aI997
aI998
aI999
aI1000
aI1001
aI1002
aI1003
aI1004
aI1005
aI1006
aI1007
aI1008
aI1009
aI1010
aI1011
aI1012
aI1013
aI1014
aI1015
aI1016
aI1017
aI1018
aI1019
aI1020
aI1021
aI1022
aI1023
asI10
(lp10
I1
aI2
aI3
aI4
aI5
aI6
aI7
aI8
aI9
aI10
aI11
aI12
aI13
aI14
aI15
aI16
aI17
aI18
aI19
aI20
aI21
aI22
aI23
aI24
aI25
aI26
aI27
aI28
aI29
aI30
aI31
aI32
aI33
aI34
aI35
aI36
aI37
aI38
aI39
aI40
aI41
aI42
aI43
aI44
aI45
aI46
aI47
aI48
aI49
aI50
aI51
aI52
aI53
aI54
aI55
aI56
aI57
aI58
aI59
aI60
aI61
aI62
aI63
aI64
aI65
aI66
aI67
aI68
aI69
aI70
aI71
aI72
aI73
aI74
aI75
aI76
aI77
aI78
aI79
aI80
aI81
aI82
aI83
aI84
aI85
aI86
aI87
aI88
aI89
aI90
aI91
aI92
aI93
aI94
aI95
aI96
aI97
aI98
aI99
aI100
aI101
aI102
aI103
aI104
aI105
aI106
aI107
aI108
aI109
aI110
aI111
aI112
aI113
aI114
aI115
aI116
aI117
aI118
aI119
aI120
aI121
aI122
aI123
aI124
aI125
aI126
aI127
aI128
aI129
aI130
aI131
aI132
aI133
aI134
aI135
aI136
aI137
aI138
aI139
aI140
aI141
aI142
aI143
aI144
aI145
aI146
aI147
aI148
aI149
aI150
aI151
aI152
aI153
aI154
aI155
aI156
aI157
aI158
aI159
aI160
aI161
aI162
aI163
aI164
aI165
aI166
aI167
aI168
aI169
aI170
aI171
aI172
aI173
aI174
aI175
aI176
aI177
aI178
aI179
aI180
aI181
aI182
aI183
aI184
aI185
aI186
aI187
aI188
aI189
aI190
aI191
aI192
aI193
aI194
aI195
aI196
aI197
aI198
aI199
aI200
aI201
aI202
aI203
aI204
aI205
aI206
aI207
aI208
aI209
aI210
aI211
aI212
aI213
aI214
aI215
aI216
aI217
aI218
aI219
aI220
aI221
aI222
aI223
aI224
aI225
aI226
aI227
aI228
aI229
aI230
aI231
aI232
aI233
aI234
aI235
aI236
aI237
aI238
aI239
aI240
aI241
aI242
aI243
aI244
aI245
aI246
aI247
aI248
aI249
aI250
aI251
aI252
aI253
aI254
aI255
aI256
aI257
aI258
aI259
aI260
aI261
aI262
aI263
aI264
aI265
aI266
aI267
aI268
aI269
aI270
aI271
aI272
aI273
aI274
aI275
aI276
aI277
aI278
aI279
aI280
aI281
aI282
aI283
aI284
aI285
aI286
aI287
aI288
aI289
aI290
aI291
aI292
aI293
aI294
aI295
aI296
aI297
aI298
aI299
aI300
aI301
aI302
aI303
aI304
aI305
aI306
aI307
aI308
aI309
aI310
aI311
aI312
aI313
aI314
aI315
aI316
aI317
aI318
aI319
aI320
aI321
aI322
aI323
aI324
aI325
aI326
aI327
aI328
aI329
aI330
aI331
aI332
aI333
aI334
aI335
aI336
aI337
aI338
aI339
aI340
aI341
aI342
aI343
aI344
aI345
aI346
aI347
aI348
aI349
aI350
aI351
aI352
aI353
aI354
aI355
aI356
aI357
aI358
aI359
aI360
aI361
aI362
aI363
aI364
aI365
aI366
aI367
aI368
aI369
aI370
aI371
aI372
aI373
aI374
aI375
aI376
aI377
aI378
aI379
aI380
aI381
aI382
aI383
aI384
aI385
aI386
aI387
aI388
aI389
aI390
aI391
aI392
aI393
aI394
aI395
aI396
aI397
aI398
aI399
aI400
aI401
aI402
aI403
aI404
aI405
aI406
aI407
aI408
aI409
aI410
aI411
aI412
aI413
aI414
aI415
aI416
aI417
aI418
aI419
aI420
aI421
aI422
aI423
aI424
aI425
aI426
aI427
aI428
aI429
aI430
aI431
aI432
aI433
aI434
aI435
aI436
aI437
aI438
aI439
aI440
aI441
aI442
aI443
aI444
aI445
aI446
aI447
aI448
aI449
aI450
aI451
aI452
aI453
aI454
aI455
aI456
aI457
aI458
aI459
aI460
aI461
aI462
aI463
aI464
aI465
aI466
aI467
aI468
aI469
aI470
aI471
aI472
aI473
aI474
aI475
aI476
aI477
aI478
aI479
aI480
aI481
aI482
aI483
aI484
aI485
aI486
aI487
aI488
aI489
aI490
aI491
aI492
aI493
aI494
aI495
aI496
aI497
aI498
aI499
aI500
aI501
aI502
aI503
aI504
aI505
aI506
aI507
aI508
aI509
aI510
aI511
aI512
aI512
aI513
aI514
aI515
aI516
aI517
aI518
aI519
aI520
aI521
aI522
aI523
aI524
aI525
aI526
aI527
aI528
aI529
aI530
aI531
aI532
aI533
aI534
aI535
aI536
aI537
aI538
aI539
aI540
aI541
aI542
aI543
aI544
aI545
aI546
aI547
aI548
aI549
aI550
aI551
aI552
aI553
aI554
aI555
aI556
aI557
aI558
aI559
aI560
aI561
aI562
aI563
aI564
aI565
aI566
aI567
aI568
aI569
aI570
aI571
aI572
aI573
aI574
aI575
aI576
aI577
aI578
aI579
aI580
aI581
aI582
aI583
aI584
aI585
aI586
aI587
aI588
aI589
aI590
aI591
aI592
aI593
aI594
aI595
aI596
aI597
aI598
aI599
aI600
aI601
aI602
aI603
aI604
aI605
aI606
aI607
aI608
aI609
aI610
aI611
aI612
aI613
aI614
aI615
aI616
aI617
aI618
aI619
aI620
aI621
aI622
aI623
aI624
aI625
aI626
aI627
aI628
aI629
aI630
aI631
aI632
aI633
aI634
aI635
aI636
aI637
aI638
aI639
aI640
aI641
aI642
aI643
aI644
aI645
aI646
aI647
aI648
aI649
aI650
aI651
aI652
aI653
aI654
aI655
aI656
aI657
aI658
aI659
aI660
aI661
aI662
aI663
aI664
aI665
aI666
aI667
aI668
aI669
aI670
aI671
aI672
aI673
aI674
aI675
aI676
aI677
aI678
aI679
aI680
aI681
aI682
aI683
aI684
aI685
aI686
aI687
aI688
aI689
aI690
aI691
aI692
aI693
aI694
aI695
aI696
aI697
aI698
aI699
aI700
aI701
aI702
aI703
aI704
aI705
aI706
aI707
aI708
aI709
aI710
aI711
aI712
aI713
aI714
aI715
aI716
aI717
aI718
aI719
aI720
aI721
aI722
aI723
aI724
aI725
aI726
aI727
aI728
aI729
aI730
aI731
aI732
aI733
aI734
aI735
aI736
aI737
aI738
aI739
aI740
aI741
aI742
aI743
aI744
aI745
aI746
aI747
aI748
aI749
aI750
aI751
aI752
aI753
aI754
aI755
aI756
aI757
aI758
aI759
aI760
aI761
aI762
aI763
aI764
aI765
aI766
aI767
aI768
aI769
aI770
aI771
aI772
aI773
aI774
aI775
aI776
aI777
aI778
aI779
aI780
aI781
aI782
aI783
aI784
aI785
aI786
aI787
aI788
aI789
aI790
aI791
aI792
aI793
aI794
aI795
aI796
aI797
aI798
aI799
aI800
aI801
aI802
aI803
aI804
aI805
aI806
aI807
aI808
aI809
aI810
aI811
aI812
aI813
aI814
aI815
aI816
aI817
aI818
aI819
aI820
aI821
aI822
aI823
aI824
aI825
aI826
aI827
aI828
aI829
aI830
aI831
aI832
aI833
aI834
aI835
aI836
aI837
aI838
aI839
aI840
aI841
aI842
aI843
aI844
aI845
aI846
aI847
aI848
aI849
aI850
aI851
aI852
aI853
aI854
aI855
aI856
aI857
aI858
aI859
aI860
aI861
aI862
aI863
aI864
aI865
aI866
aI867
aI868
aI869
aI870
aI871
aI872
aI873
aI874
aI875
aI876
aI877
aI878
aI879
aI880
aI881
aI882
aI883
aI884
aI885
aI886
aI887
aI888
aI889
aI890
aI891
aI892
aI893
aI894
aI895
aI896
aI897
aI898
aI899
aI900
aI901
aI902
aI903
aI904
aI905
aI906
aI907
aI908
aI909
aI910
aI911
aI912
aI913
aI914
aI915
aI916
aI917
aI918
aI919
aI920
aI921
aI922
aI923
aI924
aI925
aI926
aI927
aI928
aI929
aI930
aI931
aI932
aI933
aI934
aI935
aI936
aI937
aI938
aI939
aI940
aI941
aI942
aI943
aI944
aI945
aI946
aI947
aI948
aI949
aI950
aI951
aI952
aI953
aI954
aI955
aI956
aI957
aI958
aI959
aI960
aI961
aI962
aI963
aI964
aI965
aI966
aI967
aI968
aI969
aI970
aI971
aI972
aI973
aI974
aI975
aI976
aI977
aI978
aI979
aI980
aI981
aI982
aI983
aI984
aI985
aI986
aI987
aI988
aI989
aI990
aI991
aI992
aI993
aI994
aI995
aI996
aI997
aI998
aI999
aI1000
aI1001
aI1002
aI1003
aI1004
aI1005
aI1006
aI1007
aI1008
aI1009
aI1010
aI1011
aI1012
aI1013
aI1014
aI1015
aI1016
aI1017
aI1018
aI1019
aI1020
aI1021
aI1022
aI1023
as.